ccopy_reg
_reconstructor
p0
(cpandas.core.frame
DataFrame
p1
c__builtin__
object
p2
Ntp3
Rp4
(dp5
S'_metadata'
p6
(lp7
sS'_typ'
p8
S'dataframe'
p9
sS'_data'
p10
g0
(cpandas.core.internals
BlockManager
p11
g2
Ntp12
Rp13
((lp14
cpandas.indexes.base
_new_Index
p15
(cpandas.indexes.base
Index
p16
(dp17
S'data'
p18
cnumpy.core.multiarray
_reconstruct
p19
(cnumpy
ndarray
p20
(I0
tp21
S'b'
p22
tp23
Rp24
(I1
(I5
tp25
cnumpy
dtype
p26
(S'O8'
p27
I0
I1
tp28
Rp29
(I3
S'|'
p30
NNNI-1
I-1
I63
tp31
bI00
(lp32
S'ProbModel'
p33
aS'ScheduleTypeOnly'
p34
aS'DumbModel'
p35
aS'SmartHeuristicModel'
p36
aS'test_data_size'
p37
atp38
bsS'name'
p39
Nstp40
Rp41
ag15
(g16
(dp42
g18
g19
(g20
(I0
tp43
g22
tp44
Rp45
(I1
(I7
tp46
g29
I00
(lp47
S'2016-3'
p48
aS'2016-4'
p49
aS'2016-5'
p50
aS'2016-6'
p51
aS'2016-7'
p52
aS'2016-8'
p53
aS'2016-9'
p54
atp55
bsg39
Nstp56
Rp57
a(lp58
g19
(g20
(I0
tp59
g22
tp60
Rp61
(I1
(I1
I7
tp62
g26
(S'f8'
p63
I0
I1
tp64
Rp65
(I3
S'<'
p66
NNNI-1
I-1
I0
tp67
bI00
S'\xf9\x0c\xbb\x02\xe4^0@3\x08\xac\x1cZd\x1f@X\xf2\x8b%\xbfX\x16@\xc0\xe6B\xd2\x94\x8a\x0f@F(\xa3\xb7e-!@\xabc\x82\x07\xf3D\x18@1\x08\xac\x1cZd\xeb?'
p68
tp69
bag19
(g20
(I0
tp70
g22
tp71
Rp72
(I1
(I1
I7
tp73
g65
I00
S'\xabc\x82\x07\xf3\x044@X\x80\xdck.$\x1b@\xd0\xdb\xb2V\xc7\x04\x15@c\x82\x07\xf3D\xfd\x07@\x00\x00\x00\x00\x00\x00+@kuL\xf0`\x9e\x12@+@\xee5\x17\x92\xee?'
p74
tp75
bag19
(g20
(I0
tp76
g22
tp77
Rp78
(I1
(I1
I7
tp79
g65
I00
S'P\x8d\x97n\x12\xe3I@@5^\xbaIL1@{\x14\xaeG\xe1z*@e;\xdfO\x8d\x973@\xfb7B\x19\xbdmL@gffff&=@\xc3\xf5(\\\x8f\xc2\xf1?'
p80
tp81
bag19
(g20
(I0
tp82
g22
tp83
Rp84
(I1
(I1
I7
tp85
g65
I00
S'\xb0\xb9\x904\xa5\xc2D@\xd0\xf7S\xe3\xa5\x9b\x18@\x05\x81\x95C\x8bl\'@\xc1\x83y\xa2\xfe\x8d"@\xef5\x17\x92\xa64G@4\xec\n\x90{M)@\x9d\xef\xa7\xc6K7\xe9?'
p86
tp87
bag19
(g20
(I0
tp88
g22
tp89
Rp90
(I1
(I1
I7
tp91
g65
I00
S'\x00\x00\x00\x00\x00P~@\x00\x00\x00\x00\x00\xc0]@\x00\x00\x00\x00\x00\x00^@\x00\x00\x00\x00\x00\xa0e@\x00\x00\x00\x00\x000\x81@\x00\x00\x00\x00\x00 n@\x00\x00\x00\x00\x00\x00\x14@'
p92
tp93
ba(lp94
g15
(g16
(dp95
g18
g19
(g20
(I0
tp96
g22
tp97
Rp98
(I1
(I1
tp99
g29
I00
(lp100
g33
atp101
bsg39
Nstp102
Rp103
ag15
(g16
(dp104
g18
g19
(g20
(I0
tp105
g22
tp106
Rp107
(I1
(I1
tp108
g29
I00
(lp109
g34
atp110
bsg39
Nstp111
Rp112
ag15
(g16
(dp113
g18
g19
(g20
(I0
tp114
g22
tp115
Rp116
(I1
(I1
tp117
g29
I00
(lp118
g35
atp119
bsg39
Nstp120
Rp121
ag15
(g16
(dp122
g18
g19
(g20
(I0
tp123
g22
tp124
Rp125
(I1
(I1
tp126
g29
I00
(lp127
g36
atp128
bsg39
Nstp129
Rp130
ag15
(g16
(dp131
g18
g19
(g20
(I0
tp132
g22
tp133
Rp134
(I1
(I1
tp135
g29
I00
(lp136
g37
atp137
bsg39
Nstp138
Rp139
a(dp140
S'0.14.1'
p141
(dp142
S'axes'
p143
g14
sS'blocks'
p144
(lp145
(dp146
S'mgr_locs'
p147
c__builtin__
slice
p148
(I0
I1
I1
tp149
Rp150
sS'values'
p151
g61
sa(dp152
g147
g148
(I1
I2
I1
tp153
Rp154
sg151
g72
sa(dp155
g147
g148
(I2
I3
I1
tp156
Rp157
sg151
g78
sa(dp158
g147
g148
(I3
I4
I1
tp159
Rp160
sg151
g84
sa(dp161
g147
g148
(I4
I5
I1
tp162
Rp163
sg151
g90
sasstp164
bsb.