ccopy_reg
_reconstructor
p0
(cpandas.core.frame
DataFrame
p1
c__builtin__
object
p2
Ntp3
Rp4
(dp5
S'_metadata'
p6
(lp7
sS'_typ'
p8
S'dataframe'
p9
sS'_data'
p10
g0
(cpandas.core.internals
BlockManager
p11
g2
Ntp12
Rp13
((lp14
cpandas.indexes.base
_new_Index
p15
(cpandas.indexes.base
Index
p16
(dp17
S'data'
p18
cnumpy.core.multiarray
_reconstruct
p19
(cnumpy
ndarray
p20
(I0
tp21
S'b'
p22
tp23
Rp24
(I1
(I8
tp25
cnumpy
dtype
p26
(S'O8'
p27
I0
I1
tp28
Rp29
(I3
S'|'
p30
NNNI-1
I-1
I63
tp31
bI00
(lp32
S'InterpolatedProbModel'
p33
aS'InterpolatedProbModel_predictions'
p34
aS'TimezoneProbModel'
p35
aS'TimezoneProbModel_predictions'
p36
aS'GeneralProbModel'
p37
aS'GeneralProbModel_predictions'
p38
aS'test_data_size'
p39
aS'actuals'
p40
atp41
bsS'name'
p42
Nstp43
Rp44
ag15
(g16
(dp45
g18
g19
(g20
(I0
tp46
g22
tp47
Rp48
(I1
(I2
tp49
g29
I00
(lp50
S'2016-10'
p51
aS'2016-11'
p52
atp53
bsg42
Nstp54
Rp55
a(lp56
g19
(g20
(I0
tp57
g22
tp58
Rp59
(I1
(I1
I2
tp60
g26
(S'f8'
p61
I0
I1
tp62
Rp63
(I3
S'<'
p64
NNNI-1
I-1
I0
tp65
bI00
S's\x80\x9d\xdd\xdd\xf91@\xbd\x0by\x16\xd9\xa6\xe5?'
p66
tp67
bag19
(g20
(I0
tp68
g22
tp69
Rp70
(I1
(I1
I2
tp71
g29
I00
(lp72
g19
(g20
(I0
tp73
g22
tp74
Rp75
(I1
(I6
tp76
g63
I00
S'`\x00o\xdd\x0f\x07+@\x8d\xc9\xd9\xdcO\xe9H@\x95\xd5I\x19?\x9cf@\xee\x8b\xd7\xf8\x9d\xe2X@\xc2\xad\r>\xee\xf2`@\x92\xa8^n}\xa9Q@'
p77
tp78
bag19
(g20
(I0
tp79
g22
tp80
Rp81
(I1
(I6
tp82
g63
I00
S'#V$Y\xc0h\x08@K\xce\xf6N\x8c\xfa3@8R\xb7!\xc6\xa0k@1\xd1\xd3Wa\xa8Y@\xc8\x84\x86\x86\x85\xe8^@N/\xb0\xc7\xa3\xebS@'
p83
tp84
batp85
bag19
(g20
(I0
tp86
g22
tp87
Rp88
(I1
(I1
I2
tp89
g63
I00
S' \x95\x9c\x97E\x9ce@(\x02\xaa\xe7\xbf\xa4\xe4?'
p90
tp91
bag19
(g20
(I0
tp92
g22
tp93
Rp94
(I1
(I1
I2
tp95
g29
I00
(lp96
g19
(g20
(I0
tp97
g22
tp98
Rp99
(I1
(I6
tp100
g63
I00
S'\x92\xa1\xe9\x0e\xf6[\x05@\xdao\xb514\xc5\x80@\x92\xa1\xe9\x0e\xf6[\x05@\x92\xa1\xe9\x0e\xf6[\x05@\x92\xa1\xe9\x0e\xf6[\x05@\x92\xa1\xe9\x0e\xf6[\x05@'
p101
tp102
bag19
(g20
(I0
tp103
g22
tp104
Rp105
(I1
(I6
tp106
g63
I00
S'<ZJ5z\xfd\x07@3\xf0\xb7\xfdq\xef3@\xf9rAu\xcf\xa5k@YE)*\n\xa8Y@F\xf8\x1aL\x06\xe3^@\x90\x8d N\x88\xedS@'
p107
tp108
batp109
bag19
(g20
(I0
tp110
g22
tp111
Rp112
(I1
(I1
I2
tp113
g63
I00
S"\xc4\x9fm\xd4\xca\xae*@\xf4\xe6\xb6\xd6\xe2t'@"
p114
tp115
bag19
(g20
(I0
tp116
g22
tp117
Rp118
(I1
(I1
I2
tp119
g29
I00
(lp120
g19
(g20
(I0
tp121
g22
tp122
Rp123
(I1
(I6
tp124
g63
I00
S'=\xda\xc0\xdb\x9c\xf2+@\xb5D\xa0a1+=@\xeceKA1\x8eg@\xcb(\xf7Q\xa5\xe9Y@U\xe3\xe8dc\xa7a@?\x18\xc0m\x11bR@'
p125
tp126
bag19
(g20
(I0
tp127
g22
tp128
Rp129
(I1
(I6
tp130
g63
I00
S'\xa8+\x9d\x02\xa3\x17)@\xf7\x11\xa7\x8c-\xd7;@Ku\xd9\x0e\xcf\x0fh@4V6]\x1c\xe6Y@:k\xe8w|fa@\xce~\xc8\xd1\x8c\x94R@'
p131
tp132
batp133
bag19
(g20
(I0
tp134
g22
tp135
Rp136
(I1
(I1
I2
tp137
g63
I00
S'\x00\x00\x00\x00\x000\x81@\x00\x00\x00\x00\x000\x81@'
p138
tp139
bag19
(g20
(I0
tp140
g22
tp141
Rp142
(I1
(I1
I2
tp143
g29
I00
(lp144
g19
(g20
(I0
tp145
g22
tp146
Rp147
(I1
(I6
tp148
g63
I00
S'\x00\x00\x00\x00\x00\x00\x08@\x00\x00\x00\x00\x00\x002@\x00\x00\x00\x00\x00\xc0k@\x00\x00\x00\x00\x00\xc0Y@\x00\x00\x00\x00\x00\x00_@\x00\x00\x00\x00\x00\x00T@'
p149
tp150
bag19
(g20
(I0
tp151
g22
tp152
Rp153
(I1
(I6
tp154
g63
I00
S'\x00\x00\x00\x00\x00\x00\x08@\x00\x00\x00\x00\x00\x002@\x00\x00\x00\x00\x00\xc0k@\x00\x00\x00\x00\x00\xc0Y@\x00\x00\x00\x00\x00\x00_@\x00\x00\x00\x00\x00\x00T@'
p155
tp156
batp157
ba(lp158
g15
(g16
(dp159
g18
g19
(g20
(I0
tp160
g22
tp161
Rp162
(I1
(I1
tp163
g29
I00
(lp164
g33
atp165
bsg42
Nstp166
Rp167
ag15
(g16
(dp168
g18
g19
(g20
(I0
tp169
g22
tp170
Rp171
(I1
(I1
tp172
g29
I00
(lp173
g34
atp174
bsg42
Nstp175
Rp176
ag15
(g16
(dp177
g18
g19
(g20
(I0
tp178
g22
tp179
Rp180
(I1
(I1
tp181
g29
I00
(lp182
g35
atp183
bsg42
Nstp184
Rp185
ag15
(g16
(dp186
g18
g19
(g20
(I0
tp187
g22
tp188
Rp189
(I1
(I1
tp190
g29
I00
(lp191
g36
atp192
bsg42
Nstp193
Rp194
ag15
(g16
(dp195
g18
g19
(g20
(I0
tp196
g22
tp197
Rp198
(I1
(I1
tp199
g29
I00
(lp200
g37
atp201
bsg42
Nstp202
Rp203
ag15
(g16
(dp204
g18
g19
(g20
(I0
tp205
g22
tp206
Rp207
(I1
(I1
tp208
g29
I00
(lp209
g38
atp210
bsg42
Nstp211
Rp212
ag15
(g16
(dp213
g18
g19
(g20
(I0
tp214
g22
tp215
Rp216
(I1
(I1
tp217
g29
I00
(lp218
g39
atp219
bsg42
Nstp220
Rp221
ag15
(g16
(dp222
g18
g19
(g20
(I0
tp223
g22
tp224
Rp225
(I1
(I1
tp226
g29
I00
(lp227
g40
atp228
bsg42
Nstp229
Rp230
a(dp231
S'0.14.1'
p232
(dp233
S'axes'
p234
g14
sS'blocks'
p235
(lp236
(dp237
S'mgr_locs'
p238
c__builtin__
slice
p239
(I0
I1
I1
tp240
Rp241
sS'values'
p242
g59
sa(dp243
g238
g239
(I1
I2
I1
tp244
Rp245
sg242
g70
sa(dp246
g238
g239
(I2
I3
I1
tp247
Rp248
sg242
g88
sa(dp249
g238
g239
(I3
I4
I1
tp250
Rp251
sg242
g94
sa(dp252
g238
g239
(I4
I5
I1
tp253
Rp254
sg242
g112
sa(dp255
g238
g239
(I5
I6
I1
tp256
Rp257
sg242
g118
sa(dp258
g238
g239
(I6
I7
I1
tp259
Rp260
sg242
g136
sa(dp261
g238
g239
(I7
I8
I1
tp262
Rp263
sg242
g142
sasstp264
bsb.